target datalayout = "e-m:e-p270:32:32-p271:32:32-p272:64:64-i64:64-i128:128-f80:128-n8:16:32:64-S128"
target triple = "x86_64-pc-linux-gnu"

%struct.Bal_Man_t_ = type { ptr, i32, i32, i32, i32, ptr, ptr, ptr, i64 }
%struct.Vec_Int_t_ = type { i32, i32, ptr }

; Function Attrs: nounwind uwtable
define internal i32 @Vec_IntEntry(ptr noundef %0, i32 noundef %1) #0 {
  %3 = alloca ptr, align 8
  %4 = alloca i32, align 4
  store ptr %0, ptr %3, align 8
  store i32 %1, ptr %4, align 4
  %5 = load ptr, ptr %3, align 8
  %6 = getelementptr inbounds %struct.Vec_Int_t_, ptr %5, i32 0, i32 2
  %7 = load ptr, ptr %6, align 8
  %8 = load i32, ptr %4, align 4
  %9 = sext i32 %8 to i64
  %10 = getelementptr inbounds i32, ptr %7, i64 %9
  %11 = load i32, ptr %10, align 4
  ret i32 %11
}

; Function Attrs: nounwind uwtable
define internal i32 @Bal_ObjCost(ptr noundef %0, i32 noundef %1) #0 {
  %3 = alloca ptr, align 8
  %4 = alloca i32, align 4
  store ptr %0, ptr %3, align 8
  store i32 %1, ptr %4, align 4
  %5 = load ptr, ptr %3, align 8
  %6 = getelementptr inbounds %struct.Bal_Man_t_, ptr %5, i32 0, i32 6
  %7 = load ptr, ptr %6, align 8
  %8 = load i32, ptr %4, align 4
  %9 = call i32 @Vec_IntEntry(ptr noundef %7, i32 noundef %8)
  ret i32 %9
}

; Function Attrs: nounwind uwtable
define internal i32 @Abc_MaxInt(i32 noundef %0, i32 noundef %1) #0 {
  %3 = alloca i32, align 4
  %4 = alloca i32, align 4
  store i32 %0, ptr %3, align 4
  store i32 %1, ptr %4, align 4
  %5 = load i32, ptr %3, align 4
  %6 = load i32, ptr %4, align 4
  %7 = icmp sgt i32 %5, %6
  br i1 %7, label %8, label %10

8:                                                ; preds = %2
  %9 = load i32, ptr %3, align 4
  br label %12

10:                                               ; preds = %2
  %11 = load i32, ptr %4, align 4
  br label %12

12:                                               ; preds = %10, %8
  %13 = phi i32 [ %9, %8 ], [ %11, %10 ]
  ret i32 %13
}

; Function Attrs: nounwind uwtable
define internal i32 @Bal_ObjDelay(ptr noundef %0, i32 noundef %1) #0 {
  %3 = alloca ptr, align 8
  %4 = alloca i32, align 4
  store ptr %0, ptr %3, align 8
  store i32 %1, ptr %4, align 4
  %5 = load ptr, ptr %3, align 8
  %6 = load i32, ptr %4, align 4
  %7 = call i32 @Bal_ObjCost(ptr noundef %5, i32 noundef %6)
  %8 = ashr i32 %7, 4
  ret i32 %8
}

; Function Attrs: nounwind uwtable
define internal i32 @Abc_LitIsCompl(i32 noundef %0) #0 {
  %2 = alloca i32, align 4
  store i32 %0, ptr %2, align 4
  %3 = load i32, ptr %2, align 4
  %4 = and i32 %3, 1
  ret i32 %4
}

; Function Attrs: nounwind uwtable
define internal i32 @Abc_Lit2Var(i32 noundef %0) #0 {
  %2 = alloca i32, align 4
  store i32 %0, ptr %2, align 4
  %3 = load i32, ptr %2, align 4
  %4 = ashr i32 %3, 1
  ret i32 %4
}

; Function Attrs: nounwind uwtable
define i32 @Bal_ManEvalTwo(ptr noundef %0, i32 noundef %1, i32 noundef %2, i32 noundef %3, i32 noundef %4) #0 {
  %6 = alloca i32, align 4
  %7 = alloca ptr, align 8
  %8 = alloca i32, align 4
  %9 = alloca i32, align 4
  %10 = alloca i32, align 4
  %11 = alloca i32, align 4
  %12 = alloca i32, align 4
  %13 = alloca i32, align 4
  %14 = alloca i32, align 4
  %15 = alloca i32, align 4
  %16 = alloca i32, align 4
  %17 = alloca i32, align 4
  %18 = alloca i32, align 4
  %19 = alloca i32, align 4
  %20 = alloca i32, align 4
  %21 = alloca i32, align 4
  %22 = alloca i32, align 4
  %23 = alloca i32, align 4
  %24 = alloca i32, align 4
  store ptr %0, ptr %7, align 8
  store i32 %1, ptr %8, align 4
  store i32 %2, ptr %9, align 4
  store i32 %3, ptr %10, align 4
  store i32 %4, ptr %11, align 4
  %25 = load i32, ptr %8, align 4
  %26 = call i32 @Abc_Lit2Var(i32 noundef %25)
  store i32 %26, ptr %12, align 4
  %27 = load i32, ptr %9, align 4
  %28 = call i32 @Abc_Lit2Var(i32 noundef %27)
  store i32 %28, ptr %13, align 4
  %29 = load i32, ptr %10, align 4
  %30 = call i32 @Abc_Lit2Var(i32 noundef %29)
  store i32 %30, ptr %14, align 4
  %31 = load i32, ptr %8, align 4
  %32 = call i32 @Abc_LitIsCompl(i32 noundef %31)
  store i32 %32, ptr %15, align 4
  %33 = load i32, ptr %9, align 4
  %34 = call i32 @Abc_LitIsCompl(i32 noundef %33)
  store i32 %34, ptr %16, align 4
  %35 = load i32, ptr %10, align 4
  %36 = call i32 @Abc_LitIsCompl(i32 noundef %35)
  store i32 %36, ptr %17, align 4
  %37 = load ptr, ptr %7, align 8
  %38 = load i32, ptr %12, align 4
  %39 = call i32 @Bal_ObjDelay(ptr noundef %37, i32 noundef %38)
  store i32 %39, ptr %18, align 4
  %40 = load ptr, ptr %7, align 8
  %41 = load i32, ptr %13, align 4
  %42 = call i32 @Bal_ObjDelay(ptr noundef %40, i32 noundef %41)
  store i32 %42, ptr %19, align 4
  %43 = load ptr, ptr %7, align 8
  %44 = load i32, ptr %14, align 4
  %45 = call i32 @Bal_ObjDelay(ptr noundef %43, i32 noundef %44)
  store i32 %45, ptr %20, align 4
  %46 = load i32, ptr %18, align 4
  %47 = load i32, ptr %19, align 4
  %48 = load i32, ptr %20, align 4
  %49 = call i32 @Abc_MaxInt(i32 noundef %47, i32 noundef %48)
  %50 = call i32 @Abc_MaxInt(i32 noundef %46, i32 noundef %49)
  store i32 %50, ptr %21, align 4
  %51 = load i32, ptr %18, align 4
  %52 = load i32, ptr %21, align 4
  %53 = icmp ne i32 %51, %52
  %54 = zext i1 %53 to i32
  store i32 %54, ptr %22, align 4
  %55 = load i32, ptr %19, align 4
  %56 = load i32, ptr %21, align 4
  %57 = icmp ne i32 %55, %56
  %58 = zext i1 %57 to i32
  store i32 %58, ptr %23, align 4
  %59 = load i32, ptr %20, align 4
  %60 = load i32, ptr %21, align 4
  %61 = icmp ne i32 %59, %60
  %62 = zext i1 %61 to i32
  store i32 %62, ptr %24, align 4
  %63 = load i32, ptr %21, align 4
  %64 = icmp eq i32 %63, 0
  br i1 %64, label %65, label %66

65:                                               ; preds = %5
  store i32 -1, ptr %6, align 4
  br label %80

66:                                               ; preds = %5
  %67 = load ptr, ptr %7, align 8
  %68 = load i32, ptr %12, align 4
  %69 = load i32, ptr %13, align 4
  %70 = load i32, ptr %14, align 4
  %71 = load i32, ptr %15, align 4
  %72 = load i32, ptr %16, align 4
  %73 = load i32, ptr %17, align 4
  %74 = load i32, ptr %22, align 4
  %75 = load i32, ptr %23, align 4
  %76 = load i32, ptr %24, align 4
  %77 = load i32, ptr %11, align 4
  %78 = load i32, ptr %21, align 4
  %79 = call i32 @Bal_ManDeriveCuts(ptr noundef %67, i32 noundef %68, i32 noundef %69, i32 noundef %70, i32 noundef %71, i32 noundef %72, i32 noundef %73, i32 noundef %74, i32 noundef %75, i32 noundef %76, i32 noundef %77, i32 noundef %78, i32 noundef 0)
  store i32 %79, ptr %6, align 4
  br label %80

80:                                               ; preds = %66, %65
  %81 = load i32, ptr %6, align 4
  ret i32 %81
}