; Function Attrs: nounwind uwtable
define i32 @Bal_ManEvalTwo(ptr noundef readonly captures(none) %0, i32 noundef %1, i32 noundef %2, i32 noundef %3, i32 noundef %4) local_unnamed_addr #0 {
  %6 = ashr i32 %1, 1
  %7 = ashr i32 %2, 1
  %8 = ashr i32 %3, 1
  %9 = getelementptr i8, ptr %0, i64 32
  %.val36 = load ptr, ptr %9, align 8
  %10 = getelementptr i8, ptr %.val36, i64 8
  %.val36.val = load ptr, ptr %10, align 8
  %11 = sext i32 %6 to i64
  %12 = getelementptr inbounds i32, ptr %.val36.val, i64 %11
  %13 = load i32, ptr %12, align 4
  %14 = ashr i32 %13, 4
  %15 = sext i32 %7 to i64
  %16 = getelementptr inbounds i32, ptr %.val36.val, i64 %15
  %17 = load i32, ptr %16, align 4
  %18 = ashr i32 %17, 4
  %19 = sext i32 %8 to i64
  %20 = getelementptr inbounds i32, ptr %.val36.val, i64 %19
  %21 = load i32, ptr %20, align 4
  %22 = ashr i32 %21, 4
  %23 = tail call noundef i32 @llvm.smax.i32(i32 %18, i32 %22)
  %24 = tail call noundef i32 @llvm.smax.i32(i32 %14, i32 %23)
  %25 = icmp eq i32 %24, 0
  br i1 %25, label %34, label %26

26:                                               ; preds = %5
  %27 = icmp ne i32 %22, %24
  %28 = zext i1 %27 to i32
  %29 = icmp ne i32 %18, %24
  %30 = zext i1 %29 to i32
  %31 = icmp slt i32 %14, %23
  %32 = zext i1 %31 to i32
  %33 = tail call i32 @Bal_ManDeriveCuts(ptr noundef nonnull %0, i32 noundef %6, i32 noundef %7, i32 noundef %8, i32 poison, i32 poison, i32 poison, i32 noundef %32, i32 noundef %30, i32 noundef %28, i32 poison, i32 poison, i32 noundef 0)
  br label %34

34:                                               ; preds = %5, %26
  %.0 = phi i32 [ %33, %26 ], [ -1, %5 ]
  ret i32 %.0
}